target datalayout = "e-m:e-p270:32:32-p271:32:32-p272:64:64-i64:64-i128:128-f80:128-n8:16:32:64-S128"
target triple = "x86_64-pc-linux-gnu"

@fForceZero = internal global i32 0, align 4

; Function Attrs: nounwind uwtable
define internal i32 @Abc_LitNot(i32 noundef %0) #0 {
  %2 = alloca i32, align 4
  store i32 %0, ptr %2, align 4
  %3 = load i32, ptr %2, align 4
  %4 = xor i32 %3, 1
  ret i32 %4
}

; Function Attrs: nounwind uwtable
define void @Gia_ManDualAndN(ptr noundef %0, ptr noundef %1, i32 noundef %2, ptr noundef %3) #0 {
  %5 = alloca ptr, align 8
  %6 = alloca ptr, align 8
  %7 = alloca i32, align 4
  %8 = alloca ptr, align 8
  %9 = alloca i32, align 4
  %10 = alloca i32, align 4
  %11 = alloca i32, align 4
  %12 = alloca i32, align 4
  store ptr %0, ptr %5, align 8
  store ptr %1, ptr %6, align 8
  store i32 %2, ptr %7, align 4
  store ptr %3, ptr %8, align 8
  store i32 0, ptr %10, align 4
  store i32 0, ptr %11, align 4
  %13 = load ptr, ptr %8, align 8
  %14 = getelementptr inbounds i32, ptr %13, i64 0
  store i32 1, ptr %14, align 4
  store i32 0, ptr %9, align 4
  br label %15

15:                                               ; preds = %64, %4
  %16 = load i32, ptr %9, align 4
  %17 = load i32, ptr %7, align 4
  %18 = icmp slt i32 %16, %17
  br i1 %18, label %19, label %67

19:                                               ; preds = %15
  %20 = load ptr, ptr %5, align 8
  %21 = load ptr, ptr %6, align 8
  %22 = load i32, ptr %9, align 4
  %23 = mul nsw i32 2, %22
  %24 = sext i32 %23 to i64
  %25 = getelementptr inbounds i32, ptr %21, i64 %24
  %26 = load i32, ptr %25, align 4
  %27 = call i32 @Abc_LitNot(i32 noundef %26)
  %28 = load ptr, ptr %6, align 8
  %29 = load i32, ptr %9, align 4
  %30 = mul nsw i32 2, %29
  %31 = add nsw i32 %30, 1
  %32 = sext i32 %31 to i64
  %33 = getelementptr inbounds i32, ptr %28, i64 %32
  %34 = load i32, ptr %33, align 4
  %35 = call i32 @Abc_LitNot(i32 noundef %34)
  %36 = call i32 @Gia_ManHashAnd(ptr noundef %20, i32 noundef %27, i32 noundef %35)
  store i32 %36, ptr %12, align 4
  %37 = load ptr, ptr %5, align 8
  %38 = load i32, ptr %10, align 4
  %39 = load i32, ptr %12, align 4
  %40 = call i32 @Gia_ManHashOr(ptr noundef %37, i32 noundef %38, i32 noundef %39)
  store i32 %40, ptr %10, align 4
  %41 = load ptr, ptr %5, align 8
  %42 = load i32, ptr %11, align 4
  %43 = load ptr, ptr %6, align 8
  %44 = load i32, ptr %9, align 4
  %45 = mul nsw i32 2, %44
  %46 = add nsw i32 %45, 1
  %47 = sext i32 %46 to i64
  %48 = getelementptr inbounds i32, ptr %43, i64 %47
  %49 = load i32, ptr %48, align 4
  %50 = call i32 @Gia_ManHashOr(ptr noundef %41, i32 noundef %42, i32 noundef %49)
  store i32 %50, ptr %11, align 4
  %51 = load ptr, ptr %5, align 8
  %52 = load ptr, ptr %8, align 8
  %53 = getelementptr inbounds i32, ptr %52, i64 0
  %54 = load i32, ptr %53, align 4
  %55 = load ptr, ptr %6, align 8
  %56 = load i32, ptr %9, align 4
  %57 = mul nsw i32 2, %56
  %58 = sext i32 %57 to i64
  %59 = getelementptr inbounds i32, ptr %55, i64 %58
  %60 = load i32, ptr %59, align 4
  %61 = call i32 @Gia_ManHashAnd(ptr noundef %51, i32 noundef %54, i32 noundef %60)
  %62 = load ptr, ptr %8, align 8
  %63 = getelementptr inbounds i32, ptr %62, i64 0
  store i32 %61, ptr %63, align 4
  br label %64

64:                                               ; preds = %19
  %65 = load i32, ptr %9, align 4
  %66 = add nsw i32 %65, 1
  store i32 %66, ptr %9, align 4
  br label %15, !llvm.loop !14

67:                                               ; preds = %15
  %68 = load ptr, ptr %5, align 8
  %69 = load i32, ptr %11, align 4
  %70 = load i32, ptr %10, align 4
  %71 = call i32 @Abc_LitNot(i32 noundef %70)
  %72 = call i32 @Gia_ManHashAnd(ptr noundef %68, i32 noundef %69, i32 noundef %71)
  %73 = load ptr, ptr %8, align 8
  %74 = getelementptr inbounds i32, ptr %73, i64 1
  store i32 %72, ptr %74, align 4
  %75 = load i32, ptr @fForceZero, align 4
  %76 = icmp ne i32 %75, 0
  br i1 %76, label %77, label %89

77:                                               ; preds = %67
  %78 = load ptr, ptr %5, align 8
  %79 = load ptr, ptr %8, align 8
  %80 = getelementptr inbounds i32, ptr %79, i64 0
  %81 = load i32, ptr %80, align 4
  %82 = load ptr, ptr %8, align 8
  %83 = getelementptr inbounds i32, ptr %82, i64 1
  %84 = load i32, ptr %83, align 4
  %85 = call i32 @Abc_LitNot(i32 noundef %84)
  %86 = call i32 @Gia_ManHashAnd(ptr noundef %78, i32 noundef %81, i32 noundef %85)
  %87 = load ptr, ptr %8, align 8
  %88 = getelementptr inbounds i32, ptr %87, i64 0
  store i32 %86, ptr %88, align 4
  br label %89

89:                                               ; preds = %77, %67
  ret void
}