; Function Attrs: nounwind uwtable
define void @Gia_ManDualAndN(ptr noundef %0, ptr noundef readonly captures(none) %1, i32 noundef %2, ptr noundef captures(none) initializes((0, 4)) %3) local_unnamed_addr #0 {
  store i32 1, ptr %3, align 4
  %5 = icmp sgt i32 %2, 0
  br i1 %5, label %.lr.ph.preheader, label %._crit_edge

.lr.ph.preheader:                                 ; preds = %4
  %wide.trip.count = zext nneg i32 %2 to i64
  br label %.lr.ph

.lr.ph:                                           ; preds = %.lr.ph.preheader, %.lr.ph
  %indvars.iv = phi i64 [ 0, %.lr.ph.preheader ], [ %indvars.iv.next, %.lr.ph ]
  %.02831 = phi i32 [ 0, %.lr.ph.preheader ], [ %17, %.lr.ph ]
  %.02930 = phi i32 [ 0, %.lr.ph.preheader ], [ %15, %.lr.ph ]
  %6 = shl nuw nsw i64 %indvars.iv, 1
  %7 = getelementptr inbounds nuw i32, ptr %1, i64 %6
  %8 = load i32, ptr %7, align 4
  %9 = xor i32 %8, 1
  %10 = or disjoint i64 %6, 1
  %11 = getelementptr inbounds nuw i32, ptr %1, i64 %10
  %12 = load i32, ptr %11, align 4
  %13 = xor i32 %12, 1
  %14 = tail call i32 @Gia_ManHashAnd(ptr noundef %0, i32 noundef %9, i32 noundef %13) #18
  %15 = tail call i32 @Gia_ManHashOr(ptr noundef %0, i32 noundef %.02930, i32 noundef %14) #18
  %16 = load i32, ptr %11, align 4
  %17 = tail call i32 @Gia_ManHashOr(ptr noundef %0, i32 noundef %.02831, i32 noundef %16) #18
  %18 = load i32, ptr %3, align 4
  %19 = load i32, ptr %7, align 4
  %20 = tail call i32 @Gia_ManHashAnd(ptr noundef %0, i32 noundef %18, i32 noundef %19) #18
  store i32 %20, ptr %3, align 4
  %indvars.iv.next = add nuw nsw i64 %indvars.iv, 1
  %exitcond.not = icmp eq i64 %indvars.iv.next, %wide.trip.count
  br i1 %exitcond.not, label %._crit_edge.loopexit, label %.lr.ph, !llvm.loop !13

._crit_edge.loopexit:                             ; preds = %.lr.ph
  %21 = xor i32 %15, 1
  br label %._crit_edge

._crit_edge:                                      ; preds = %._crit_edge.loopexit, %4
  %.029.lcssa = phi i32 [ 1, %4 ], [ %21, %._crit_edge.loopexit ]
  %.028.lcssa = phi i32 [ 0, %4 ], [ %17, %._crit_edge.loopexit ]
  %22 = tail call i32 @Gia_ManHashAnd(ptr noundef %0, i32 noundef %.028.lcssa, i32 noundef %.029.lcssa) #18
  %23 = getelementptr inbounds nuw i8, ptr %3, i64 4
  store i32 %22, ptr %23, align 4
  ret void
}